; Function Attrs: mustprogress nounwind uwtable
define hidden void @_ZN16SystemDictionary17update_dictionaryEP10JavaThreadP13InstanceKlassP15ClassLoaderData(ptr noundef %0, ptr noundef %1, ptr nocapture noundef readonly %2) local_unnamed_addr #0 align 2 {
  %4 = load ptr, ptr @SystemDictionary_lock, align 8
  %.not.i.i = icmp eq ptr %4, null
  br i1 %.not.i.i, label %_ZN13MonitorLockerC2EP7MonitorN5Mutex18SafepointCheckFlagE.exit, label %5

5:                                                ; preds = %3
  tail call void @_ZN5Mutex4lockEv(ptr noundef nonnull align 8 dereferenceable(104) %4) #14
  br label %_ZN13MonitorLockerC2EP7MonitorN5Mutex18SafepointCheckFlagE.exit

_ZN13MonitorLockerC2EP7MonitorN5Mutex18SafepointCheckFlagE.exit: ; preds = %3, %5
  %6 = getelementptr inbounds i8, ptr %1, i64 24
  %7 = load ptr, ptr %6, align 8
  %8 = getelementptr inbounds i8, ptr %2, i64 88
  %9 = load ptr, ptr %8, align 8
  %10 = tail call noundef ptr @_ZN10Dictionary10find_classEP6ThreadP6Symbol(ptr noundef nonnull align 8 dereferenceable(24) %9, ptr noundef %0, ptr noundef %7) #14
  %11 = icmp eq ptr %10, null
  br i1 %11, label %12, label %_ZN13MonitorLockerD2Ev.exit

12:                                               ; preds = %_ZN13MonitorLockerC2EP7MonitorN5Mutex18SafepointCheckFlagE.exit
  tail call void @_ZN10Dictionary9add_klassEP10JavaThreadP6SymbolP13InstanceKlass(ptr noundef nonnull align 8 dereferenceable(24) %9, ptr noundef %0, ptr noundef %7, ptr noundef nonnull %1) #14
  br label %_ZN13MonitorLockerD2Ev.exit

_ZN13MonitorLockerD2Ev.exit:                      ; preds = %12, %_ZN13MonitorLockerC2EP7MonitorN5Mutex18SafepointCheckFlagE.exit
  tail call void @_ZN7Monitor10notify_allEv(ptr noundef nonnull align 8 dereferenceable(104) %4) #14
  tail call void @_ZN5Mutex6unlockEv(ptr noundef nonnull align 8 dereferenceable(104) %4) #14
  ret void
}